; Function Attrs: nounwind uwtable
define internal range(i32 0, 12) i32 @T42_Driver_Init(ptr noundef captures(none) %0) #0 {
  %2 = getelementptr inbounds nuw i8, ptr %0, i64 8
  %3 = load ptr, ptr %2, align 8, !tbaa !3
  %4 = tail call ptr @FT_Get_Module(ptr noundef %3, ptr noundef nonnull @.str.9) #13
  %.not = icmp eq ptr %4, null
  br i1 %.not, label %8, label %5

5:                                                ; preds = %1
  %6 = load ptr, ptr %4, align 8, !tbaa !11
  %7 = getelementptr inbounds nuw i8, ptr %0, i64 56
  store ptr %6, ptr %7, align 8, !tbaa !12
  br label %8

8:                                                ; preds = %1, %5
  %.0 = phi i32 [ 0, %5 ], [ 11, %1 ]
  ret i32 %.0
}